; Function Attrs: alwaysinline norecurse nounwind uwtable
define internal void @_ZN5faiss12_GLOBAL__N_115hammings_knn_mcINS_17HammingComputer16EEEviPKhS4_mmmPiPl.omp_outlined(ptr noalias noundef readonly captures(none) %0, ptr noalias readnone captures(none) %1, ptr noundef nonnull readonly align 8 captures(none) dereferenceable(8) %2, ptr noundef nonnull readonly align 8 captures(none) dereferenceable(8) %3, ptr noundef nonnull readonly align 8 captures(none) dereferenceable(8) %4, ptr noundef nonnull readonly align 8 captures(none) dereferenceable(24) %5, ptr noundef nonnull readonly align 8 captures(none) dereferenceable(8) %6, ptr noundef nonnull readonly align 4 captures(none) dereferenceable(4) %7) #17 personality ptr @__gxx_personality_v0 {
  %9 = alloca i64, align 8
  %10 = alloca i64, align 8
  %11 = alloca i64, align 8
  %12 = alloca i32, align 4
  %13 = load i64, ptr %2, align 8, !tbaa !4
  %.not = icmp eq i64 %13, 0
  br i1 %.not, label %104, label %14

14:                                               ; preds = %8
  %15 = add i64 %13, -1
  call void @llvm.lifetime.start.p0(i64 8, ptr nonnull %9) #5
  store i64 0, ptr %9, align 8, !tbaa !4
  call void @llvm.lifetime.start.p0(i64 8, ptr nonnull %10) #5
  store i64 %15, ptr %10, align 8, !tbaa !4
  call void @llvm.lifetime.start.p0(i64 8, ptr nonnull %11) #5
  store i64 1, ptr %11, align 8, !tbaa !4
  call void @llvm.lifetime.start.p0(i64 4, ptr nonnull %12) #5
  store i32 0, ptr %12, align 4, !tbaa !10
  %16 = load i32, ptr %0, align 4, !tbaa !10
  call void @__kmpc_for_static_init_8u(ptr nonnull @1, i32 %16, i32 34, ptr nonnull %12, ptr nonnull %9, ptr nonnull %10, ptr nonnull %11, i64 1, i64 1)
  %17 = load i64, ptr %10, align 8, !tbaa !4
  %18 = call i64 @llvm.umin.i64(i64 %17, i64 %15)
  store i64 %18, ptr %10, align 8, !tbaa !4
  %19 = load i64, ptr %9, align 8, !tbaa !4
  %.not27 = icmp ugt i64 %19, %18
  br i1 %.not27, label %._crit_edge25, label %.lr.ph24

.lr.ph24:                                         ; preds = %14
  %20 = load ptr, ptr %5, align 8
  %21 = load ptr, ptr %6, align 8
  %22 = load i64, ptr %3, align 8, !tbaa !4
  %23 = load i64, ptr %4, align 8, !tbaa !4
  %24 = icmp ult i64 %22, %23
  br i1 %24, label %.lr.ph24.split, label %._crit_edge25

.lr.ph24.split:                                   ; preds = %.lr.ph24, %._crit_edge
  %25 = phi i64 [ %37, %._crit_edge ], [ %18, %.lr.ph24 ]
  %26 = phi i64 [ %38, %._crit_edge ], [ %23, %.lr.ph24 ]
  %.02022 = phi i64 [ %39, %._crit_edge ], [ %19, %.lr.ph24 ]
  %27 = load i64, ptr %3, align 8, !tbaa !4
  %28 = icmp ult i64 %27, %26
  br i1 %28, label %.lr.ph, label %._crit_edge

.lr.ph:                                           ; preds = %.lr.ph24.split
  %29 = getelementptr inbounds nuw %"struct.faiss::HCounterState.23", ptr %20, i64 %.02022
  %30 = getelementptr inbounds nuw i8, ptr %29, i64 16
  %31 = getelementptr inbounds nuw i8, ptr %29, i64 24
  %32 = getelementptr inbounds nuw i8, ptr %29, i64 32
  %33 = getelementptr inbounds nuw i8, ptr %29, i64 44
  %34 = getelementptr inbounds nuw i8, ptr %29, i64 40
  %35 = getelementptr inbounds nuw i8, ptr %29, i64 8
  %36 = getelementptr inbounds nuw i8, ptr %29, i64 36
  br label %42

._crit_edge.loopexit:                             ; preds = %_ZN5faiss13HCounterStateINS_17HammingComputer16EE14update_counterEPKhm.exit
  %.pre = load i64, ptr %10, align 8, !tbaa !4
  br label %._crit_edge

._crit_edge:                                      ; preds = %._crit_edge.loopexit, %.lr.ph24.split
  %37 = phi i64 [ %.pre, %._crit_edge.loopexit ], [ %25, %.lr.ph24.split ]
  %38 = phi i64 [ %102, %._crit_edge.loopexit ], [ %26, %.lr.ph24.split ]
  %39 = add nuw i64 %.02022, 1
  %40 = add i64 %37, 1
  %41 = icmp ult i64 %39, %40
  br i1 %41, label %.lr.ph24.split, label %._crit_edge25, !llvm.loop !765

42:                                               ; preds = %.lr.ph, %_ZN5faiss13HCounterStateINS_17HammingComputer16EE14update_counterEPKhm.exit
  %.021 = phi i64 [ %27, %.lr.ph ], [ %101, %_ZN5faiss13HCounterStateINS_17HammingComputer16EE14update_counterEPKhm.exit ]
  %43 = load i32, ptr %7, align 4, !tbaa !10
  %44 = sext i32 %43 to i64
  %45 = mul i64 %.021, %44
  %46 = getelementptr inbounds nuw i8, ptr %21, i64 %45
  %47 = load i64, ptr %46, align 8, !tbaa !4
  %48 = load i64, ptr %30, align 8, !tbaa !270
  %49 = xor i64 %48, %47
  %50 = call range(i64 0, 65) i64 @llvm.ctpop.i64(i64 %49)
  %51 = trunc nuw nsw i64 %50 to i32
  %52 = getelementptr inbounds nuw i8, ptr %46, i64 8
  %53 = load i64, ptr %52, align 8, !tbaa !4
  %54 = load i64, ptr %31, align 8, !tbaa !272
  %55 = xor i64 %54, %53
  %56 = call range(i64 0, 65) i64 @llvm.ctpop.i64(i64 %55)
  %57 = trunc nuw nsw i64 %56 to i32
  %58 = add nuw nsw i32 %57, %51
  %59 = load i32, ptr %32, align 8, !tbaa !766
  %.not.i = icmp sgt i32 %58, %59
  br i1 %.not.i, label %_ZN5faiss13HCounterStateINS_17HammingComputer16EE14update_counterEPKhm.exit, label %60

60:                                               ; preds = %42
  %61 = icmp samesign ult i32 %58, %59
  %62 = load i32, ptr %33, align 4, !tbaa !767
  br i1 %61, label %63, label %88

63:                                               ; preds = %60
  %64 = load ptr, ptr %35, align 8, !tbaa !617
  %65 = mul nsw i32 %62, %58
  %66 = load ptr, ptr %29, align 8, !tbaa !610
  %67 = zext nneg i32 %58 to i64
  %68 = getelementptr inbounds nuw i32, ptr %66, i64 %67
  %69 = load i32, ptr %68, align 4, !tbaa !10
  %70 = add nsw i32 %69, 1
  store i32 %70, ptr %68, align 4, !tbaa !10
  %71 = add nsw i32 %69, %65
  %72 = sext i32 %71 to i64
  %73 = getelementptr inbounds i64, ptr %64, i64 %72
  store i64 %.021, ptr %73, align 8, !tbaa !4
  %74 = load i32, ptr %36, align 4, !tbaa !768
  %75 = add nsw i32 %74, 1
  %76 = load i32, ptr %33, align 4, !tbaa !767
  %.promoted.i = load i32, ptr %32, align 1
  store i32 %75, ptr %36, align 4, !tbaa !768
  %77 = icmp eq i32 %75, %76
  br i1 %77, label %.lr.ph.i, label %_ZN5faiss13HCounterStateINS_17HammingComputer16EE14update_counterEPKhm.exit

.lr.ph.i:                                         ; preds = %63
  %78 = zext i32 %.promoted.i to i64
  br label %79

79:                                               ; preds = %82, %.lr.ph.i
  %indvars.iv.i = phi i64 [ %78, %.lr.ph.i ], [ %indvars.iv.next.i, %82 ]
  %80 = trunc nuw i64 %indvars.iv.i to i32
  %81 = icmp sgt i32 %80, 0
  br i1 %81, label %82, label %_ZN5faiss13HCounterStateINS_17HammingComputer16EE14update_counterEPKhm.exit

82:                                               ; preds = %79
  %indvars.iv.next.i = add nsw i64 %indvars.iv.i, -1
  %indvars.i = trunc i64 %indvars.iv.next.i to i32
  store i32 %indvars.i, ptr %32, align 8, !tbaa !766
  %83 = and i64 %indvars.iv.next.i, 4294967295
  %84 = getelementptr inbounds nuw i32, ptr %66, i64 %83
  %85 = load i32, ptr %84, align 4, !tbaa !10
  store i32 %85, ptr %34, align 8, !tbaa !769
  %86 = sub nsw i32 %75, %85
  store i32 %86, ptr %36, align 4, !tbaa !768
  %87 = icmp eq i32 %85, 0
  br i1 %87, label %79, label %_ZN5faiss13HCounterStateINS_17HammingComputer16EE14update_counterEPKhm.exit, !llvm.loop !770

88:                                               ; preds = %60
  %89 = load i32, ptr %34, align 8, !tbaa !769
  %90 = icmp slt i32 %89, %62
  br i1 %90, label %91, label %_ZN5faiss13HCounterStateINS_17HammingComputer16EE14update_counterEPKhm.exit

91:                                               ; preds = %88
  %92 = load ptr, ptr %35, align 8, !tbaa !617
  %93 = mul nsw i32 %62, %58
  %94 = add nsw i32 %89, 1
  store i32 %94, ptr %34, align 8, !tbaa !769
  %95 = add nsw i32 %89, %93
  %96 = sext i32 %95 to i64
  %97 = getelementptr inbounds i64, ptr %92, i64 %96
  store i64 %.021, ptr %97, align 8, !tbaa !4
  %98 = load ptr, ptr %29, align 8, !tbaa !610
  %99 = zext nneg i32 %58 to i64
  %100 = getelementptr inbounds nuw i32, ptr %98, i64 %99
  store i32 %94, ptr %100, align 4, !tbaa !10
  br label %_ZN5faiss13HCounterStateINS_17HammingComputer16EE14update_counterEPKhm.exit

_ZN5faiss13HCounterStateINS_17HammingComputer16EE14update_counterEPKhm.exit: ; preds = %79, %82, %42, %63, %88, %91
  %101 = add nuw i64 %.021, 1
  %102 = load i64, ptr %4, align 8, !tbaa !4
  %103 = icmp ult i64 %101, %102
  br i1 %103, label %42, label %._crit_edge.loopexit, !llvm.loop !771

._crit_edge25:                                    ; preds = %._crit_edge, %.lr.ph24, %14
  call void @__kmpc_for_static_fini(ptr nonnull @1, i32 %16)
  call void @llvm.lifetime.end.p0(i64 4, ptr nonnull %12) #5
  call void @llvm.lifetime.end.p0(i64 8, ptr nonnull %11) #5
  call void @llvm.lifetime.end.p0(i64 8, ptr nonnull %10) #5
  call void @llvm.lifetime.end.p0(i64 8, ptr nonnull %9) #5
  br label %104

104:                                              ; preds = %._crit_edge25, %8
  ret void
}